; Function Attrs: mustprogress uwtable
define void @_ZN7rocksdb11DecodeU64TsERKNS_5SliceEPm(ptr dead_on_unwind noalias writable sret(%"class.rocksdb::Status") align 8 %0, ptr noundef nonnull readonly align 8 captures(none) dereferenceable(16) %1, ptr noundef writeonly captures(none) %2) local_unnamed_addr #1 personality ptr @__gxx_personality_v0 {
  %4 = alloca %"class.rocksdb::Slice", align 8
  %5 = alloca %"class.rocksdb::Slice", align 8
  %6 = getelementptr inbounds nuw i8, ptr %1, i64 8
  %7 = load i64, ptr %6, align 8, !tbaa !29
  %.not = icmp eq i64 %7, 8
  br i1 %.not, label %11, label %8

8:                                                ; preds = %3
  call void @llvm.lifetime.start.p0(i64 16, ptr nonnull %4) #27
  store ptr @.str, ptr %4, align 8, !tbaa !32
  %9 = getelementptr inbounds nuw i8, ptr %4, i64 8
  store i64 30, ptr %9, align 8, !tbaa !29
  call void @llvm.lifetime.start.p0(i64 16, ptr nonnull %5) #27
  store ptr @.str.2, ptr %5, align 8, !tbaa !32
  %10 = getelementptr inbounds nuw i8, ptr %5, i64 8
  store i64 0, ptr %10, align 8, !tbaa !29
  call void @_ZN7rocksdb6StatusC2ENS0_4CodeENS0_7SubCodeERKNS_5SliceES5_NS0_8SeverityE(ptr noundef nonnull align 8 dereferenceable(16) %0, i8 noundef zeroext 4, i8 noundef zeroext 0, ptr noundef nonnull align 8 dereferenceable(16) %4, ptr noundef nonnull align 8 dereferenceable(16) %5, i8 noundef zeroext 0)
  call void @llvm.lifetime.end.p0(i64 16, ptr nonnull %5) #27
  call void @llvm.lifetime.end.p0(i64 16, ptr nonnull %4) #27
  br label %14

11:                                               ; preds = %3
  %12 = load ptr, ptr %1, align 8, !tbaa !32
  %.0.copyload.i = load i64, ptr %12, align 1
  store i64 %.0.copyload.i, ptr %2, align 8, !tbaa !33
  %13 = getelementptr inbounds nuw i8, ptr %0, i64 8
  store ptr null, ptr %13, align 8, !tbaa !34, !alias.scope !36
  tail call void @llvm.memset.p0.i64(ptr noundef nonnull align 8 dereferenceable(16) %0, i8 0, i64 6, i1 false), !alias.scope !36
  br label %14

14:                                               ; preds = %11, %8
  ret void
}